target datalayout = "e-m:e-p270:32:32-p271:32:32-p272:64:64-i64:64-i128:128-f80:128-n8:16:32:64-S128"
target triple = "x86_64-unknown-linux-gnu"

%"class.std::__cxx11::basic_string" = type { %"struct.std::__cxx11::basic_string<char>::_Alloc_hider", i64, %union.anon.21 }
%"struct.std::__cxx11::basic_string<char>::_Alloc_hider" = type { ptr }
%union.anon.21 = type { i64, [8 x i8] }
%"struct.OpenImageIO_v2_6_0::psd_pvt::ImageResourceBlock" = type { [4 x i8], i16, %"class.std::__cxx11::basic_string", i32, i64 }

; Function Attrs: mustprogress nounwind uwtable
define linkonce_odr hidden void @_ZN18OpenImageIO_v2_6_011swap_endianIjEEvPT_i(ptr noundef %f, i32 noundef %len) #4 comdat {
entry:
  %f.addr = alloca ptr, align 8
  %len.addr = alloca i32, align 4
  %i = alloca i32, align 4
  store ptr %f, ptr %f.addr, align 8
  store i32 %len, ptr %len.addr, align 4
  store i32 0, ptr %i, align 4
  br label %for.cond

for.cond:                                         ; preds = %for.inc, %entry
  %0 = load i32, ptr %i, align 4
  %1 = load i32, ptr %len.addr, align 4
  %cmp = icmp slt i32 %0, %1
  br i1 %cmp, label %for.body, label %for.end

for.body:                                         ; preds = %for.cond
  %2 = load ptr, ptr %f.addr, align 8
  %3 = load i32, ptr %i, align 4
  %idxprom = sext i32 %3 to i64
  %arrayidx = getelementptr inbounds i32, ptr %2, i64 %idxprom
  %4 = load i32, ptr %arrayidx, align 4
  %5 = call i32 @llvm.bswap.i32(i32 %4)
  %6 = load ptr, ptr %f.addr, align 8
  %7 = load i32, ptr %i, align 4
  %idxprom1 = sext i32 %7 to i64
  %arrayidx2 = getelementptr inbounds i32, ptr %6, i64 %idxprom1
  store i32 %5, ptr %arrayidx2, align 4
  br label %for.inc

for.inc:                                          ; preds = %for.body
  %8 = load i32, ptr %i, align 4
  %inc = add nsw i32 %8, 1
  store i32 %inc, ptr %i, align 4
  br label %for.cond, !llvm.loop !63

for.end:                                          ; preds = %for.cond
  ret void
}

; Function Attrs: mustprogress nounwind uwtable
define linkonce_odr hidden void @_ZN18OpenImageIO_v2_6_011swap_endianItEEvPT_i(ptr noundef %f, i32 noundef %len) #4 comdat {
entry:
  %f.addr = alloca ptr, align 8
  %len.addr = alloca i32, align 4
  %i = alloca i32, align 4
  store ptr %f, ptr %f.addr, align 8
  store i32 %len, ptr %len.addr, align 4
  store i32 0, ptr %i, align 4
  br label %for.cond

for.cond:                                         ; preds = %for.inc, %entry
  %0 = load i32, ptr %i, align 4
  %1 = load i32, ptr %len.addr, align 4
  %cmp = icmp slt i32 %0, %1
  br i1 %cmp, label %for.body, label %for.end

for.body:                                         ; preds = %for.cond
  %2 = load ptr, ptr %f.addr, align 8
  %3 = load i32, ptr %i, align 4
  %idxprom = sext i32 %3 to i64
  %arrayidx = getelementptr inbounds i16, ptr %2, i64 %idxprom
  %4 = load i16, ptr %arrayidx, align 2
  %5 = call i16 @llvm.bswap.i16(i16 %4)
  %6 = load ptr, ptr %f.addr, align 8
  %7 = load i32, ptr %i, align 4
  %idxprom1 = sext i32 %7 to i64
  %arrayidx2 = getelementptr inbounds i16, ptr %6, i64 %idxprom1
  store i16 %5, ptr %arrayidx2, align 2
  br label %for.inc

for.inc:                                          ; preds = %for.body
  %8 = load i32, ptr %i, align 4
  %inc = add nsw i32 %8, 1
  store i32 %inc, ptr %i, align 4
  br label %for.cond, !llvm.loop !62

for.end:                                          ; preds = %for.cond
  ret void
}

; Function Attrs: mustprogress uwtable
define linkonce_odr hidden noundef zeroext i1 @_ZN18OpenImageIO_v2_6_08PSDInput9read_bigeIjjEEbRT0_(ptr noundef nonnull align 8 dereferenceable(840) %this, ptr noundef nonnull align 4 dereferenceable(4) %value) #6 comdat align 2 {
entry:
  %retval = alloca i1, align 1
  %this.addr = alloca ptr, align 8
  %value.addr = alloca ptr, align 8
  %buffer = alloca i32, align 4
  store ptr %this, ptr %this.addr, align 8
  store ptr %value, ptr %value.addr, align 8
  %this1 = load ptr, ptr %this.addr, align 8
  %call = call noundef zeroext i1 @_ZN18OpenImageIO_v2_6_010ImageInput6ioreadEPvmm(ptr noundef nonnull align 8 dereferenceable(184) %this1, ptr noundef %buffer, i64 noundef 4, i64 noundef 1)
  br i1 %call, label %if.end, label %if.then

if.then:                                          ; preds = %entry
  store i1 false, ptr %retval, align 1
  br label %return

if.end:                                           ; preds = %entry
  call void @_ZN18OpenImageIO_v2_6_011swap_endianIjEEvPT_i(ptr noundef %buffer, i32 noundef 1)
  %0 = load i32, ptr %buffer, align 4
  %1 = load ptr, ptr %value.addr, align 8
  store i32 %0, ptr %1, align 4
  store i1 true, ptr %retval, align 1
  br label %return

return:                                           ; preds = %if.end, %if.then
  %2 = load i1, ptr %retval, align 1
  ret i1 %2
}

; Function Attrs: mustprogress uwtable
define linkonce_odr hidden noundef zeroext i1 @_ZN18OpenImageIO_v2_6_08PSDInput9read_bigeIttEEbRT0_(ptr noundef nonnull align 8 dereferenceable(840) %this, ptr noundef nonnull align 2 dereferenceable(2) %value) #6 comdat align 2 {
entry:
  %retval = alloca i1, align 1
  %this.addr = alloca ptr, align 8
  %value.addr = alloca ptr, align 8
  %buffer = alloca i16, align 2
  store ptr %this, ptr %this.addr, align 8
  store ptr %value, ptr %value.addr, align 8
  %this1 = load ptr, ptr %this.addr, align 8
  %call = call noundef zeroext i1 @_ZN18OpenImageIO_v2_6_010ImageInput6ioreadEPvmm(ptr noundef nonnull align 8 dereferenceable(184) %this1, ptr noundef %buffer, i64 noundef 2, i64 noundef 1)
  br i1 %call, label %if.end, label %if.then

if.then:                                          ; preds = %entry
  store i1 false, ptr %retval, align 1
  br label %return

if.end:                                           ; preds = %entry
  call void @_ZN18OpenImageIO_v2_6_011swap_endianItEEvPT_i(ptr noundef %buffer, i32 noundef 1)
  %0 = load i16, ptr %buffer, align 2
  %1 = load ptr, ptr %value.addr, align 8
  store i16 %0, ptr %1, align 2
  store i1 true, ptr %retval, align 1
  br label %return

return:                                           ; preds = %if.end, %if.then
  %2 = load i1, ptr %retval, align 1
  ret i1 %2
}

; Function Attrs: mustprogress uwtable
define hidden noundef zeroext i1 @_ZN18OpenImageIO_v2_6_08PSDInput13read_resourceERNS_7psd_pvt18ImageResourceBlockE(ptr noundef nonnull align 8 dereferenceable(840) %this, ptr noundef nonnull align 8 dereferenceable(56) %block) #6 align 2 {
entry:
  %this.addr = alloca ptr, align 8
  %block.addr = alloca ptr, align 8
  %ok = alloca i8, align 1
  store ptr %this, ptr %this.addr, align 8
  store ptr %block, ptr %block.addr, align 8
  %this1 = load ptr, ptr %this.addr, align 8
  %0 = load ptr, ptr %block.addr, align 8
  %signature = getelementptr inbounds %"struct.OpenImageIO_v2_6_0::psd_pvt::ImageResourceBlock", ptr %0, i32 0, i32 0
  %arraydecay = getelementptr inbounds [4 x i8], ptr %signature, i64 0, i64 0
  %call = call noundef zeroext i1 @_ZN18OpenImageIO_v2_6_010ImageInput6ioreadEPvmm(ptr noundef nonnull align 8 dereferenceable(184) %this1, ptr noundef %arraydecay, i64 noundef 4, i64 noundef 1)
  br i1 %call, label %land.lhs.true, label %land.end

land.lhs.true:                                    ; preds = %entry
  %1 = load ptr, ptr %block.addr, align 8
  %id = getelementptr inbounds %"struct.OpenImageIO_v2_6_0::psd_pvt::ImageResourceBlock", ptr %1, i32 0, i32 1
  %call2 = call noundef zeroext i1 @_ZN18OpenImageIO_v2_6_08PSDInput9read_bigeIttEEbRT0_(ptr noundef nonnull align 8 dereferenceable(840) %this1, ptr noundef nonnull align 2 dereferenceable(2) %id)
  br i1 %call2, label %land.lhs.true3, label %land.end

land.lhs.true3:                                   ; preds = %land.lhs.true
  %2 = load ptr, ptr %block.addr, align 8
  %name = getelementptr inbounds %"struct.OpenImageIO_v2_6_0::psd_pvt::ImageResourceBlock", ptr %2, i32 0, i32 2
  %call4 = call noundef i32 @_ZN18OpenImageIO_v2_6_08PSDInput18read_pascal_stringERNSt7__cxx1112basic_stringIcSt11char_traitsIcESaIcEEEt(ptr noundef nonnull align 8 dereferenceable(840) %this1, ptr noundef nonnull align 8 dereferenceable(32) %name, i16 noundef zeroext 2)
  %tobool = icmp ne i32 %call4, 0
  br i1 %tobool, label %land.rhs, label %land.end

land.rhs:                                         ; preds = %land.lhs.true3
  %3 = load ptr, ptr %block.addr, align 8
  %length = getelementptr inbounds %"struct.OpenImageIO_v2_6_0::psd_pvt::ImageResourceBlock", ptr %3, i32 0, i32 3
  %call5 = call noundef zeroext i1 @_ZN18OpenImageIO_v2_6_08PSDInput9read_bigeIjjEEbRT0_(ptr noundef nonnull align 8 dereferenceable(840) %this1, ptr noundef nonnull align 4 dereferenceable(4) %length)
  br label %land.end

land.end:                                         ; preds = %land.rhs, %land.lhs.true3, %land.lhs.true, %entry
  %4 = phi i1 [ false, %land.lhs.true3 ], [ false, %land.lhs.true ], [ false, %entry ], [ %call5, %land.rhs ]
  %frombool = zext i1 %4 to i8
  store i8 %frombool, ptr %ok, align 1
  %call6 = call noundef i64 @_ZNK18OpenImageIO_v2_6_010ImageInput6iotellEv(ptr noundef nonnull align 8 dereferenceable(184) %this1)
  %5 = load ptr, ptr %block.addr, align 8
  %pos = getelementptr inbounds %"struct.OpenImageIO_v2_6_0::psd_pvt::ImageResourceBlock", ptr %5, i32 0, i32 4
  store i64 %call6, ptr %pos, align 8
  %6 = load ptr, ptr %block.addr, align 8
  %length7 = getelementptr inbounds %"struct.OpenImageIO_v2_6_0::psd_pvt::ImageResourceBlock", ptr %6, i32 0, i32 3
  %7 = load i32, ptr %length7, align 8
  %conv = zext i32 %7 to i64
  %call8 = call noundef zeroext i1 @_ZN18OpenImageIO_v2_6_010ImageInput6ioseekEli(ptr noundef nonnull align 8 dereferenceable(184) %this1, i64 noundef %conv, i32 noundef 1)
  %conv9 = zext i1 %call8 to i32
  %8 = load i8, ptr %ok, align 1
  %tobool10 = trunc i8 %8 to i1
  %conv11 = zext i1 %tobool10 to i32
  %and = and i32 %conv11, %conv9
  %tobool12 = icmp ne i32 %and, 0
  %frombool13 = zext i1 %tobool12 to i8
  store i8 %frombool13, ptr %ok, align 1
  %9 = load ptr, ptr %block.addr, align 8
  %length14 = getelementptr inbounds %"struct.OpenImageIO_v2_6_0::psd_pvt::ImageResourceBlock", ptr %9, i32 0, i32 3
  %10 = load i32, ptr %length14, align 8
  %rem = urem i32 %10, 2
  %cmp = icmp ne i32 %rem, 0
  br i1 %cmp, label %if.then, label %if.end

if.then:                                          ; preds = %land.end
  %call15 = call noundef zeroext i1 @_ZN18OpenImageIO_v2_6_010ImageInput6ioseekEli(ptr noundef nonnull align 8 dereferenceable(184) %this1, i64 noundef 1, i32 noundef 1)
  %conv16 = zext i1 %call15 to i32
  %11 = load i8, ptr %ok, align 1
  %tobool17 = trunc i8 %11 to i1
  %conv18 = zext i1 %tobool17 to i32
  %and19 = and i32 %conv18, %conv16
  %tobool20 = icmp ne i32 %and19, 0
  %frombool21 = zext i1 %tobool20 to i8
  store i8 %frombool21, ptr %ok, align 1
  br label %if.end

if.end:                                           ; preds = %if.then, %land.end
  %12 = load i8, ptr %ok, align 1
  %tobool22 = trunc i8 %12 to i1
  ret i1 %tobool22
}