; Function Attrs: mustprogress uwtable
define hidden noundef zeroext i1 @_ZN18OpenImageIO_v2_6_08PSDInput13read_resourceERNS_7psd_pvt18ImageResourceBlockE(ptr noundef nonnull align 8 dereferenceable(840) %this, ptr noundef nonnull align 8 dereferenceable(56) %block) local_unnamed_addr #5 align 2 {
entry:
  %buffer.i11 = alloca i32, align 4
  %buffer.i = alloca i16, align 2
  %call = tail call noundef zeroext i1 @_ZN18OpenImageIO_v2_6_010ImageInput6ioreadEPvmm(ptr noundef nonnull align 8 dereferenceable(184) %this, ptr noundef nonnull %block, i64 noundef 4, i64 noundef 1)
  br i1 %call, label %land.lhs.true, label %land.end

land.lhs.true:                                    ; preds = %entry
  call void @llvm.lifetime.start.p0(i64 2, ptr nonnull %buffer.i)
  %call.i = call noundef zeroext i1 @_ZN18OpenImageIO_v2_6_010ImageInput6ioreadEPvmm(ptr noundef nonnull align 8 dereferenceable(184) %this, ptr noundef nonnull %buffer.i, i64 noundef 2, i64 noundef 1)
  br i1 %call.i, label %land.lhs.true3, label %_ZN18OpenImageIO_v2_6_08PSDInput9read_bigeIttEEbRT0_.exit

_ZN18OpenImageIO_v2_6_08PSDInput9read_bigeIttEEbRT0_.exit: ; preds = %land.lhs.true
  call void @llvm.lifetime.end.p0(i64 2, ptr nonnull %buffer.i)
  br label %land.end

land.lhs.true3:                                   ; preds = %land.lhs.true
  %id = getelementptr inbounds i8, ptr %block, i64 4
  %buffer.promoted.i = load i16, ptr %buffer.i, align 2
  %0 = call i16 @llvm.bswap.i16(i16 %buffer.promoted.i)
  store i16 %0, ptr %id, align 4
  call void @llvm.lifetime.end.p0(i64 2, ptr nonnull %buffer.i)
  %name = getelementptr inbounds i8, ptr %block, i64 8
  %call4 = call noundef i32 @_ZN18OpenImageIO_v2_6_08PSDInput18read_pascal_stringERNSt7__cxx1112basic_stringIcSt11char_traitsIcESaIcEEEt(ptr noundef nonnull align 8 dereferenceable(840) %this, ptr noundef nonnull align 8 dereferenceable(32) %name, i16 noundef zeroext 2)
  %tobool.not = icmp eq i32 %call4, 0
  br i1 %tobool.not, label %land.end, label %land.rhs

land.rhs:                                         ; preds = %land.lhs.true3
  call void @llvm.lifetime.start.p0(i64 4, ptr nonnull %buffer.i11)
  %call.i12 = call noundef zeroext i1 @_ZN18OpenImageIO_v2_6_010ImageInput6ioreadEPvmm(ptr noundef nonnull align 8 dereferenceable(184) %this, ptr noundef nonnull %buffer.i11, i64 noundef 4, i64 noundef 1)
  br i1 %call.i12, label %for.body.i.preheader.i13, label %_ZN18OpenImageIO_v2_6_08PSDInput9read_bigeIjjEEbRT0_.exit

for.body.i.preheader.i13:                         ; preds = %land.rhs
  %length = getelementptr inbounds i8, ptr %block, i64 40
  %buffer.promoted.i14 = load i32, ptr %buffer.i11, align 4
  %1 = call i32 @llvm.bswap.i32(i32 %buffer.promoted.i14)
  store i32 %1, ptr %length, align 8
  br label %_ZN18OpenImageIO_v2_6_08PSDInput9read_bigeIjjEEbRT0_.exit

_ZN18OpenImageIO_v2_6_08PSDInput9read_bigeIjjEEbRT0_.exit: ; preds = %land.rhs, %for.body.i.preheader.i13
  call void @llvm.lifetime.end.p0(i64 4, ptr nonnull %buffer.i11)
  br label %land.end

land.end:                                         ; preds = %_ZN18OpenImageIO_v2_6_08PSDInput9read_bigeIttEEbRT0_.exit, %_ZN18OpenImageIO_v2_6_08PSDInput9read_bigeIjjEEbRT0_.exit, %land.lhs.true3, %entry
  %conv11 = phi i1 [ false, %land.lhs.true3 ], [ false, %_ZN18OpenImageIO_v2_6_08PSDInput9read_bigeIttEEbRT0_.exit ], [ false, %entry ], [ %call.i12, %_ZN18OpenImageIO_v2_6_08PSDInput9read_bigeIjjEEbRT0_.exit ]
  %call6 = call noundef i64 @_ZNK18OpenImageIO_v2_6_010ImageInput6iotellEv(ptr noundef nonnull align 8 dereferenceable(184) %this)
  %pos = getelementptr inbounds i8, ptr %block, i64 48
  store i64 %call6, ptr %pos, align 8
  %length7 = getelementptr inbounds i8, ptr %block, i64 40
  %2 = load i32, ptr %length7, align 8
  %conv = zext i32 %2 to i64
  %call8 = call noundef zeroext i1 @_ZN18OpenImageIO_v2_6_010ImageInput6ioseekEli(ptr noundef nonnull align 8 dereferenceable(184) %this, i64 noundef %conv, i32 noundef 1)
  %tobool12 = and i1 %conv11, %call8
  %3 = load i32, ptr %length7, align 8
  %rem = and i32 %3, 1
  %cmp.not = icmp eq i32 %rem, 0
  br i1 %cmp.not, label %if.end, label %if.then

if.then:                                          ; preds = %land.end
  %call15 = call noundef zeroext i1 @_ZN18OpenImageIO_v2_6_010ImageInput6ioseekEli(ptr noundef nonnull align 8 dereferenceable(184) %this, i64 noundef 1, i32 noundef 1)
  %and1910 = and i1 %tobool12, %call15
  br label %if.end

if.end:                                           ; preds = %if.then, %land.end
  %ok.0.in = phi i1 [ %and1910, %if.then ], [ %tobool12, %land.end ]
  ret i1 %ok.0.in
}